; Function Attrs: mustprogress uwtable
define hidden noundef zeroext i1 @_ZN3euf6solver10propagatedEN3sat7literalEm(ptr nocapture noundef nonnull readnone align 8 dereferenceable(9136) %this, i32 %l.coerce, i64 noundef %idx) unnamed_addr #3 align 2 {
entry:
  %0 = inttoptr i64 %idx to ptr
  %1 = load ptr, ptr %0, align 8
  %vtable = load ptr, ptr %1, align 8
  %vfn = getelementptr inbounds i8, ptr %vtable, i64 40
  %2 = load ptr, ptr %vfn, align 8
  %call3 = tail call noundef zeroext i1 %2(ptr noundef nonnull align 8 dereferenceable(32) %1, i32 %l.coerce, i64 noundef %idx)
  ret i1 %call3
}